; Function Attrs: null_pointer_is_valid sspstrong uwtable
define internal noundef zeroext i16 @de_rr_req_ref(ptr noundef %0, ptr noundef %1, ptr readnone captures(none) %2, i32 noundef %3, i32 %4, ptr readnone captures(none) %5, i32 %6) #3 {
  %8 = load i32, ptr @hf_gsm_a_rr_ra, align 4
  %9 = tail call ptr @proto_tree_add_item(ptr noundef %1, i32 noundef %8, ptr noundef %0, i32 noundef %3, i32 noundef 1, i32 noundef 0)
  %10 = add i32 %3, 1
  %11 = tail call zeroext i16 @tvb_get_ntohs(ptr noundef %0, i32 noundef %10)
  %12 = lshr i16 %11, 5
  %13 = and i16 %12, 63
  %14 = trunc nuw nsw i16 %13 to i8
  %15 = trunc i16 %11 to i8
  %16 = and i8 %15, 31
  %.lhs.trunc.i = sub nsw i8 %14, %16
  %17 = srem i8 %.lhs.trunc.i, 26
  %.sext.i = sext i8 %17 to i16
  %18 = icmp slt i8 %17, 0
  %19 = add nsw i16 %.sext.i, 26
  %spec.select.i = select i1 %18, i16 %19, i16 %.sext.i
  %20 = lshr i16 %11, 11
  %narrow.i = mul nuw i16 %20, 1326
  %21 = mul nsw i16 %spec.select.i, 51
  %22 = add nuw i16 %narrow.i, %13
  %23 = add i16 %22, %21
  %24 = load i32, ptr @hf_gsm_a_rr_T1prim, align 4
  %25 = tail call ptr @proto_tree_add_item(ptr noundef %1, i32 noundef %24, ptr noundef %0, i32 noundef %10, i32 noundef 1, i32 noundef 0)
  %26 = load i32, ptr @hf_gsm_a_rr_T3, align 4
  %27 = tail call ptr @proto_tree_add_item(ptr noundef %1, i32 noundef %26, ptr noundef %0, i32 noundef %10, i32 noundef 2, i32 noundef 0)
  %28 = add i32 %3, 2
  %29 = load i32, ptr @hf_gsm_a_rr_T2, align 4
  %30 = tail call ptr @proto_tree_add_item(ptr noundef %1, i32 noundef %29, ptr noundef %0, i32 noundef %28, i32 noundef 1, i32 noundef 0)
  %31 = load i32, ptr @hf_gsm_a_rr_rfn, align 4
  %32 = zext i16 %23 to i32
  %33 = tail call ptr @proto_tree_add_uint(ptr noundef %1, i32 noundef %31, ptr noundef %0, i32 noundef %10, i32 noundef 2, i32 noundef %32)
  %.not.i = icmp eq ptr %33, null
  br i1 %.not.i, label %proto_item_set_generated.exit, label %34

34:                                               ; preds = %7
  %35 = getelementptr inbounds nuw i8, ptr %33, i64 40
  %36 = load ptr, ptr %35, align 8
  %.not5.i = icmp eq ptr %36, null
  br i1 %.not5.i, label %proto_item_set_generated.exit, label %37

37:                                               ; preds = %34
  %38 = getelementptr inbounds nuw i8, ptr %36, i64 28
  %39 = load i32, ptr %38, align 4
  %40 = or i32 %39, 2
  store i32 %40, ptr %38, align 4
  br label %proto_item_set_generated.exit

proto_item_set_generated.exit:                    ; preds = %7, %34, %37
  ret i16 3
}